target datalayout = "e-m:e-p270:32:32-p271:32:32-p272:64:64-i64:64-i128:128-f80:128-n8:16:32:64-S128"
target triple = "x86_64-pc-linux-gnu"

%struct.yy_buffer_state = type { ptr, ptr, ptr, i32, i32, i32, i32, i32, i32, i32, i32, i32 }

@rtlil_frontend_yyin = global ptr null, align 8
@rtlil_frontend_yylineno = global i32 1, align 4
@rtlil_frontend_yytext = global ptr null, align 8
@_ZL15yy_buffer_stack = internal global ptr null, align 8
@_ZL19yy_buffer_stack_top = internal global i64 0, align 8
@_ZL10yy_c_buf_p = internal global ptr null, align 8
@_ZL12yy_hold_char = internal global i8 0, align 1
@_ZL10yy_n_chars = internal global i32 0, align 4

; Function Attrs: mustprogress uwtable
define internal noundef i32 @_ZL7yyinputv() #4 {
  %1 = alloca i32, align 4
  %2 = alloca i32, align 4
  %3 = alloca i32, align 4
  %4 = alloca i32, align 4
  call void @llvm.lifetime.start.p0(i64 4, ptr %2) #3
  %5 = load i8, ptr @_ZL12yy_hold_char, align 1, !tbaa !22
  %6 = load ptr, ptr @_ZL10yy_c_buf_p, align 8, !tbaa !20
  store i8 %5, ptr %6, align 1, !tbaa !22
  %7 = load ptr, ptr @_ZL10yy_c_buf_p, align 8, !tbaa !20
  %8 = load i8, ptr %7, align 1, !tbaa !22
  %9 = sext i8 %8 to i32
  %10 = icmp eq i32 %9, 0
  br i1 %10, label %11, label %48

11:                                               ; preds = %0
  %12 = load ptr, ptr @_ZL10yy_c_buf_p, align 8, !tbaa !20
  %13 = load ptr, ptr @_ZL15yy_buffer_stack, align 8, !tbaa !13
  %14 = load i64, ptr @_ZL19yy_buffer_stack_top, align 8, !tbaa !16
  %15 = getelementptr inbounds nuw ptr, ptr %13, i64 %14
  %16 = load ptr, ptr %15, align 8, !tbaa !18
  %17 = getelementptr inbounds nuw %struct.yy_buffer_state, ptr %16, i32 0, i32 1
  %18 = load ptr, ptr %17, align 8, !tbaa !34
  %19 = load i32, ptr @_ZL10yy_n_chars, align 4, !tbaa !6
  %20 = sext i32 %19 to i64
  %21 = getelementptr inbounds i8, ptr %18, i64 %20
  %22 = icmp ult ptr %12, %21
  br i1 %22, label %23, label %25

23:                                               ; preds = %11
  %24 = load ptr, ptr @_ZL10yy_c_buf_p, align 8, !tbaa !20
  store i8 0, ptr %24, align 1, !tbaa !22
  br label %47

25:                                               ; preds = %11
  call void @llvm.lifetime.start.p0(i64 4, ptr %3) #3
  %26 = load ptr, ptr @_ZL10yy_c_buf_p, align 8, !tbaa !20
  %27 = load ptr, ptr @rtlil_frontend_yytext, align 8, !tbaa !20
  %28 = ptrtoint ptr %26 to i64
  %29 = ptrtoint ptr %27 to i64
  %30 = sub i64 %28, %29
  %31 = trunc i64 %30 to i32
  store i32 %31, ptr %3, align 4, !tbaa !6
  %32 = load ptr, ptr @_ZL10yy_c_buf_p, align 8, !tbaa !20
  %33 = getelementptr inbounds nuw i8, ptr %32, i32 1
  store ptr %33, ptr @_ZL10yy_c_buf_p, align 8, !tbaa !20
  %34 = call noundef i32 @_ZL18yy_get_next_bufferv()
  switch i32 %34, label %43 [
    i32 2, label %35
    i32 1, label %37
    i32 0, label %38
  ]

35:                                               ; preds = %25
  %36 = load ptr, ptr @rtlil_frontend_yyin, align 8, !tbaa !10
  call void @_Z24rtlil_frontend_yyrestartP8_IO_FILE(ptr noundef %36)
  br label %37

37:                                               ; preds = %25, %35
  store i32 0, ptr %1, align 4
  store i32 1, ptr %4, align 4
  br label %44

38:                                               ; preds = %25
  %39 = load ptr, ptr @rtlil_frontend_yytext, align 8, !tbaa !20
  %40 = load i32, ptr %3, align 4, !tbaa !6
  %41 = sext i32 %40 to i64
  %42 = getelementptr inbounds i8, ptr %39, i64 %41
  store ptr %42, ptr @_ZL10yy_c_buf_p, align 8, !tbaa !20
  br label %43

43:                                               ; preds = %25, %38
  store i32 0, ptr %4, align 4
  br label %44

44:                                               ; preds = %43, %37
  call void @llvm.lifetime.end.p0(i64 4, ptr %3) #3
  %45 = load i32, ptr %4, align 4
  switch i32 %45, label %63 [
    i32 0, label %46
  ]

46:                                               ; preds = %44
  br label %47

47:                                               ; preds = %46, %23
  br label %48

48:                                               ; preds = %47, %0
  %49 = load ptr, ptr @_ZL10yy_c_buf_p, align 8, !tbaa !20
  %50 = load i8, ptr %49, align 1, !tbaa !22
  %51 = zext i8 %50 to i32
  store i32 %51, ptr %2, align 4, !tbaa !6
  %52 = load ptr, ptr @_ZL10yy_c_buf_p, align 8, !tbaa !20
  store i8 0, ptr %52, align 1, !tbaa !22
  %53 = load ptr, ptr @_ZL10yy_c_buf_p, align 8, !tbaa !20
  %54 = getelementptr inbounds nuw i8, ptr %53, i32 1
  store ptr %54, ptr @_ZL10yy_c_buf_p, align 8, !tbaa !20
  %55 = load i8, ptr %54, align 1, !tbaa !22
  store i8 %55, ptr @_ZL12yy_hold_char, align 1, !tbaa !22
  %56 = load i32, ptr %2, align 4, !tbaa !6
  %57 = icmp eq i32 %56, 10
  br i1 %57, label %58, label %61

58:                                               ; preds = %48
  %59 = load i32, ptr @rtlil_frontend_yylineno, align 4, !tbaa !6
  %60 = add nsw i32 %59, 1
  store i32 %60, ptr @rtlil_frontend_yylineno, align 4, !tbaa !6
  br label %61

61:                                               ; preds = %58, %48
  %62 = load i32, ptr %2, align 4, !tbaa !6
  store i32 %62, ptr %1, align 4
  store i32 1, ptr %4, align 4
  br label %63

63:                                               ; preds = %61, %44
  call void @llvm.lifetime.end.p0(i64 4, ptr %2) #3
  %64 = load i32, ptr %1, align 4
  ret i32 %64
}