; Function Attrs: mustprogress uwtable
define internal noundef range(i32 0, 256) i32 @_ZL7yyinputv() #3 {
  %1 = load i8, ptr @_ZL12yy_hold_char, align 1, !tbaa !29
  %2 = load ptr, ptr @_ZL10yy_c_buf_p, align 8, !tbaa !6
  store i8 %1, ptr %2, align 1, !tbaa !29
  %3 = icmp eq i8 %1, 0
  br i1 %3, label %4, label %28

4:                                                ; preds = %0
  %5 = load ptr, ptr @_ZL15yy_buffer_stack, align 8, !tbaa !15
  %6 = load i64, ptr @_ZL19yy_buffer_stack_top, align 8, !tbaa !18
  %7 = getelementptr inbounds nuw ptr, ptr %5, i64 %6
  %8 = load ptr, ptr %7, align 8, !tbaa !20
  %9 = getelementptr inbounds nuw i8, ptr %8, i64 8
  %10 = load ptr, ptr %9, align 8, !tbaa !24
  %11 = load i32, ptr @_ZL10yy_n_chars, align 4, !tbaa !11
  %12 = sext i32 %11 to i64
  %13 = getelementptr inbounds i8, ptr %10, i64 %12
  %14 = icmp ult ptr %2, %13
  %15 = getelementptr inbounds nuw i8, ptr %2, i64 1
  br i1 %14, label %.thread, label %17

.thread:                                          ; preds = %4
  store i8 0, ptr %2, align 1, !tbaa !29
  store ptr %15, ptr @_ZL10yy_c_buf_p, align 8, !tbaa !6
  %16 = load i8, ptr %15, align 1, !tbaa !29
  store i8 %16, ptr @_ZL12yy_hold_char, align 1, !tbaa !29
  br label %38

17:                                               ; preds = %4
  %18 = load ptr, ptr @rtlil_frontend_yytext, align 8, !tbaa !6
  store ptr %15, ptr @_ZL10yy_c_buf_p, align 8, !tbaa !6
  %19 = tail call fastcc noundef i32 @_ZL18yy_get_next_bufferv()
  switch i32 %19, label %default.unreachable8 [
    i32 2, label %20
    i32 1, label %38
    i32 0, label %.critedge
  ]

20:                                               ; preds = %17
  %21 = load ptr, ptr @rtlil_frontend_yyin, align 8, !tbaa !13
  tail call void @_Z24rtlil_frontend_yyrestartP8_IO_FILE(ptr noundef %21)
  br label %38

.critedge:                                        ; preds = %17
  %22 = ptrtoint ptr %2 to i64
  %23 = ptrtoint ptr %18 to i64
  %24 = sub i64 %22, %23
  %25 = load ptr, ptr @rtlil_frontend_yytext, align 8, !tbaa !6
  %sext = shl i64 %24, 32
  %26 = ashr exact i64 %sext, 32
  %27 = getelementptr inbounds i8, ptr %25, i64 %26
  %.pre = load i8, ptr %27, align 1, !tbaa !29
  br label %28

default.unreachable8:                             ; preds = %17
  unreachable

28:                                               ; preds = %.critedge, %0
  %29 = phi i8 [ %.pre, %.critedge ], [ %1, %0 ]
  %30 = phi ptr [ %27, %.critedge ], [ %2, %0 ]
  %31 = zext i8 %29 to i32
  store i8 0, ptr %30, align 1, !tbaa !29
  %32 = getelementptr inbounds nuw i8, ptr %30, i64 1
  store ptr %32, ptr @_ZL10yy_c_buf_p, align 8, !tbaa !6
  %33 = load i8, ptr %32, align 1, !tbaa !29
  store i8 %33, ptr @_ZL12yy_hold_char, align 1, !tbaa !29
  %34 = icmp eq i8 %29, 10
  br i1 %34, label %35, label %38

35:                                               ; preds = %28
  %36 = load i32, ptr @rtlil_frontend_yylineno, align 4, !tbaa !11
  %37 = add nsw i32 %36, 1
  store i32 %37, ptr @rtlil_frontend_yylineno, align 4, !tbaa !11
  br label %38

38:                                               ; preds = %.thread, %28, %35, %20, %17
  %.1 = phi i32 [ 0, %17 ], [ 0, %20 ], [ 10, %35 ], [ %31, %28 ], [ 0, %.thread ]
  ret i32 %.1
}